; Function Attrs: nounwind sspstrong uwtable
define internal noundef i64 @ossl_ec_group_initialize_copy(i64 noundef returned %0, i64 noundef %1) #0 {
  %3 = tail call ptr @rb_check_typeddata(i64 noundef %0, ptr noundef nonnull @ossl_ec_group_type) #7
  %.not = icmp eq ptr %3, null
  br i1 %.not, label %6, label %4

4:                                                ; preds = %2
  %5 = load i64, ptr @eEC_GROUP, align 8, !tbaa !6
  tail call void (i64, ptr, ...) @ossl_raise(i64 noundef %5, ptr noundef nonnull @.str.83) #9
  unreachable

6:                                                ; preds = %2
  %7 = tail call ptr @rb_check_typeddata(i64 noundef %1, ptr noundef nonnull @ossl_ec_group_type) #7
  %8 = icmp eq ptr %7, null
  br i1 %8, label %9, label %11

9:                                                ; preds = %6
  %10 = load i64, ptr @eEC_GROUP, align 8, !tbaa !6
  tail call void (i64, ptr, ...) @ossl_raise(i64 noundef %10, ptr noundef nonnull @.str.59) #9
  unreachable

11:                                               ; preds = %6
  %12 = tail call ptr @EC_GROUP_dup(ptr noundef nonnull %7) #7
  %.not9 = icmp eq ptr %12, null
  br i1 %.not9, label %13, label %15

13:                                               ; preds = %11
  %14 = load i64, ptr @eEC_GROUP, align 8, !tbaa !6
  tail call void (i64, ptr, ...) @ossl_raise(i64 noundef %14, ptr noundef nonnull @.str.68) #9
  unreachable

15:                                               ; preds = %11
  %16 = inttoptr i64 %0 to ptr
  %17 = getelementptr inbounds nuw i8, ptr %16, i64 32
  store ptr %12, ptr %17, align 8, !tbaa !19
  ret i64 %0
}